target datalayout = "e-m:e-p270:32:32-p271:32:32-p272:64:64-i64:64-i128:128-f80:128-n8:16:32:64-S128"
target triple = "x86_64-pc-linux-gnu"

%struct.AVChannelLayout = type { i32, i32, %union.anon.1, ptr }
%union.anon.1 = type { i64 }
%struct.AudioPhaseMeterContext = type { ptr, ptr, ptr, i64, i32, i32, i32, i32, %struct.AVRational, [4 x i32], ptr, [4 x i8], i32, i32, i32, i32, i32, i32, float, float, float, %struct.AVRational, i64, i64, [2 x i64], [2 x i64] }
%struct.AVRational = type { i32, i32 }
%struct.AVFrame = type { [8 x ptr], [8 x i32], ptr, i32, i32, i32, i32, i32, %struct.AVRational, i64, i64, %struct.AVRational, i32, ptr, i32, i32, [8 x ptr], ptr, i32, ptr, i32, i32, i32, i32, i32, i32, i32, i64, ptr, i32, ptr, ptr, i64, i64, i64, i64, ptr, %struct.AVChannelLayout, i64 }

@.str.42 = private unnamed_addr constant [21 x i8] c"lavfi.aphasemeter.%s\00", align 1
@.str.43 = private unnamed_addr constant [16 x i8] c"out_phase_start\00", align 1
@.str.44 = private unnamed_addr constant [21 x i8] c"out_phase_start: %s\0A\00", align 1
@.str.45 = private unnamed_addr constant [14 x i8] c"out_phase_end\00", align 1
@.str.46 = private unnamed_addr constant [19 x i8] c"out_phase_duration\00", align 1
@.str.47 = private unnamed_addr constant [44 x i8] c"out_phase_end: %s | out_phase_duration: %s\0A\00", align 1

; Function Attrs: inlinehint nounwind uwtable
define internal void @add_metadata(ptr noundef %0, ptr noundef %1, ptr noundef %2) #7 {
  %4 = alloca ptr, align 8
  %5 = alloca ptr, align 8
  %6 = alloca ptr, align 8
  %7 = alloca [128 x i8], align 16
  store ptr %0, ptr %4, align 8, !tbaa !82
  store ptr %1, ptr %5, align 8, !tbaa !28
  store ptr %2, ptr %6, align 8, !tbaa !28
  call void @llvm.lifetime.start.p0(i64 128, ptr %7) #12
  %8 = getelementptr inbounds [128 x i8], ptr %7, i64 0, i64 0
  %9 = load ptr, ptr %5, align 8, !tbaa !28
  %10 = call i32 (ptr, i64, ptr, ...) @snprintf(ptr noundef %8, i64 noundef 128, ptr noundef @.str.42, ptr noundef %9) #12
  %11 = load ptr, ptr %4, align 8, !tbaa !82
  %12 = getelementptr inbounds nuw %struct.AVFrame, ptr %11, i32 0, i32 28
  %13 = getelementptr inbounds [128 x i8], ptr %7, i64 0, i64 0
  %14 = load ptr, ptr %6, align 8, !tbaa !28
  %15 = call i32 @av_dict_set(ptr noundef %12, ptr noundef %13, ptr noundef %14, i32 noundef 0)
  call void @llvm.lifetime.end.p0(i64 128, ptr %7) #12
  ret void
}

; Function Attrs: inlinehint nounwind uwtable
define internal ptr @av_ts_make_time_string(ptr noundef %0, i64 noundef %1, ptr noundef %2) #7 {
  %4 = alloca ptr, align 8
  %5 = alloca i64, align 8
  %6 = alloca ptr, align 8
  store ptr %0, ptr %4, align 8, !tbaa !28
  store i64 %1, ptr %5, align 8, !tbaa !56
  store ptr %2, ptr %6, align 8, !tbaa !93
  %7 = load ptr, ptr %4, align 8, !tbaa !28
  %8 = load i64, ptr %5, align 8, !tbaa !56
  %9 = load ptr, ptr %6, align 8, !tbaa !93
  %10 = load i64, ptr %9, align 4
  %11 = call ptr @av_ts_make_time_string2(ptr noundef %7, i64 noundef %8, i64 %10)
  ret ptr %11
}

; Function Attrs: inlinehint nounwind uwtable
define internal void @update_out_phase_detection(ptr noundef %0, ptr noundef %1, i32 noundef %2) #7 {
  %4 = alloca ptr, align 8
  %5 = alloca ptr, align 8
  %6 = alloca i32, align 4
  %7 = alloca i64, align 8
  %8 = alloca [32 x i8], align 1
  %9 = alloca [32 x i8], align 1
  %10 = alloca [32 x i8], align 1
  %11 = alloca [32 x i8], align 1
  %12 = alloca [32 x i8], align 1
  %13 = alloca [32 x i8], align 1
  store ptr %0, ptr %4, align 8, !tbaa !22
  store ptr %1, ptr %5, align 8, !tbaa !82
  store i32 %2, ptr %6, align 4, !tbaa !29
  call void @llvm.lifetime.start.p0(i64 8, ptr %7) #12
  %14 = load ptr, ptr %4, align 8, !tbaa !22
  %15 = getelementptr inbounds nuw %struct.AudioPhaseMeterContext, ptr %14, i32 0, i32 14
  %16 = load i32, ptr %15, align 4, !tbaa !91
  %17 = icmp ne i32 %16, 0
  br i1 %17, label %32, label %18

18:                                               ; preds = %3
  %19 = load i32, ptr %6, align 4, !tbaa !29
  %20 = icmp ne i32 %19, 0
  br i1 %20, label %21, label %32

21:                                               ; preds = %18
  %22 = load ptr, ptr %4, align 8, !tbaa !22
  %23 = getelementptr inbounds nuw %struct.AudioPhaseMeterContext, ptr %22, i32 0, i32 14
  store i32 1, ptr %23, align 4, !tbaa !91
  %24 = load ptr, ptr %4, align 8, !tbaa !22
  %25 = getelementptr inbounds nuw %struct.AudioPhaseMeterContext, ptr %24, i32 0, i32 16
  store i32 1, ptr %25, align 4, !tbaa !92
  %26 = load ptr, ptr %5, align 8, !tbaa !82
  %27 = getelementptr inbounds nuw %struct.AVFrame, ptr %26, i32 0, i32 9
  %28 = load i64, ptr %27, align 8, !tbaa !85
  %29 = load ptr, ptr %4, align 8, !tbaa !22
  %30 = getelementptr inbounds nuw %struct.AudioPhaseMeterContext, ptr %29, i32 0, i32 25
  %31 = getelementptr inbounds [2 x i64], ptr %30, i64 0, i64 0
  store i64 %28, ptr %31, align 8, !tbaa !56
  br label %32

32:                                               ; preds = %21, %18, %3
  %33 = load ptr, ptr %4, align 8, !tbaa !22
  %34 = getelementptr inbounds nuw %struct.AudioPhaseMeterContext, ptr %33, i32 0, i32 14
  %35 = load i32, ptr %34, align 4, !tbaa !91
  %36 = icmp ne i32 %35, 0
  br i1 %36, label %37, label %88

37:                                               ; preds = %32
  %38 = load i32, ptr %6, align 4, !tbaa !29
  %39 = icmp ne i32 %38, 0
  br i1 %39, label %40, label %88

40:                                               ; preds = %37
  %41 = load ptr, ptr %4, align 8, !tbaa !22
  %42 = getelementptr inbounds nuw %struct.AudioPhaseMeterContext, ptr %41, i32 0, i32 16
  %43 = load i32, ptr %42, align 4, !tbaa !92
  %44 = icmp ne i32 %43, 0
  br i1 %44, label %45, label %88

45:                                               ; preds = %40
  %46 = load ptr, ptr %4, align 8, !tbaa !22
  %47 = getelementptr inbounds nuw %struct.AudioPhaseMeterContext, ptr %46, i32 0, i32 23
  %48 = load i64, ptr %47, align 8, !tbaa !90
  %49 = load ptr, ptr %4, align 8, !tbaa !22
  %50 = getelementptr inbounds nuw %struct.AudioPhaseMeterContext, ptr %49, i32 0, i32 25
  %51 = getelementptr inbounds [2 x i64], ptr %50, i64 0, i64 1
  store i64 %48, ptr %51, align 8, !tbaa !56
  %52 = load ptr, ptr %4, align 8, !tbaa !22
  %53 = getelementptr inbounds nuw %struct.AudioPhaseMeterContext, ptr %52, i32 0, i32 25
  %54 = getelementptr inbounds [2 x i64], ptr %53, i64 0, i64 1
  %55 = load i64, ptr %54, align 8, !tbaa !56
  %56 = load ptr, ptr %4, align 8, !tbaa !22
  %57 = getelementptr inbounds nuw %struct.AudioPhaseMeterContext, ptr %56, i32 0, i32 25
  %58 = getelementptr inbounds [2 x i64], ptr %57, i64 0, i64 0
  %59 = load i64, ptr %58, align 8, !tbaa !56
  %60 = sub nsw i64 %55, %59
  store i64 %60, ptr %7, align 8, !tbaa !56
  %61 = load i64, ptr %7, align 8, !tbaa !56
  %62 = load ptr, ptr %4, align 8, !tbaa !22
  %63 = getelementptr inbounds nuw %struct.AudioPhaseMeterContext, ptr %62, i32 0, i32 22
  %64 = load i64, ptr %63, align 8, !tbaa !65
  %65 = icmp sge i64 %61, %64
  br i1 %65, label %66, label %87

66:                                               ; preds = %45
  %67 = load ptr, ptr %5, align 8, !tbaa !82
  call void @llvm.memset.p0.i64(ptr align 1 %8, i8 0, i64 32, i1 false)
  %68 = getelementptr inbounds [32 x i8], ptr %8, i64 0, i64 0
  %69 = load ptr, ptr %4, align 8, !tbaa !22
  %70 = getelementptr inbounds nuw %struct.AudioPhaseMeterContext, ptr %69, i32 0, i32 25
  %71 = getelementptr inbounds [2 x i64], ptr %70, i64 0, i64 0
  %72 = load i64, ptr %71, align 8, !tbaa !56
  %73 = load ptr, ptr %4, align 8, !tbaa !22
  %74 = getelementptr inbounds nuw %struct.AudioPhaseMeterContext, ptr %73, i32 0, i32 21
  %75 = call ptr @av_ts_make_time_string(ptr noundef %68, i64 noundef %72, ptr noundef %74)
  call void @add_metadata(ptr noundef %67, ptr noundef @.str.43, ptr noundef %75)
  %76 = load ptr, ptr %4, align 8, !tbaa !22
  call void @llvm.memset.p0.i64(ptr align 1 %9, i8 0, i64 32, i1 false)
  %77 = getelementptr inbounds [32 x i8], ptr %9, i64 0, i64 0
  %78 = load ptr, ptr %4, align 8, !tbaa !22
  %79 = getelementptr inbounds nuw %struct.AudioPhaseMeterContext, ptr %78, i32 0, i32 25
  %80 = getelementptr inbounds [2 x i64], ptr %79, i64 0, i64 0
  %81 = load i64, ptr %80, align 8, !tbaa !56
  %82 = load ptr, ptr %4, align 8, !tbaa !22
  %83 = getelementptr inbounds nuw %struct.AudioPhaseMeterContext, ptr %82, i32 0, i32 21
  %84 = call ptr @av_ts_make_time_string(ptr noundef %77, i64 noundef %81, ptr noundef %83)
  call void (ptr, i32, ptr, ...) @av_log(ptr noundef %76, i32 noundef 32, ptr noundef @.str.44, ptr noundef %84)
  %85 = load ptr, ptr %4, align 8, !tbaa !22
  %86 = getelementptr inbounds nuw %struct.AudioPhaseMeterContext, ptr %85, i32 0, i32 16
  store i32 0, ptr %86, align 4, !tbaa !92
  br label %87

87:                                               ; preds = %66, %45
  br label %88

88:                                               ; preds = %87, %40, %37, %32
  %89 = load ptr, ptr %4, align 8, !tbaa !22
  %90 = getelementptr inbounds nuw %struct.AudioPhaseMeterContext, ptr %89, i32 0, i32 14
  %91 = load i32, ptr %90, align 4, !tbaa !91
  %92 = icmp ne i32 %91, 0
  br i1 %92, label %93, label %163

93:                                               ; preds = %88
  %94 = load i32, ptr %6, align 4, !tbaa !29
  %95 = icmp ne i32 %94, 0
  br i1 %95, label %163, label %96

96:                                               ; preds = %93
  %97 = load ptr, ptr %5, align 8, !tbaa !82
  %98 = icmp ne ptr %97, null
  br i1 %98, label %99, label %103

99:                                               ; preds = %96
  %100 = load ptr, ptr %5, align 8, !tbaa !82
  %101 = getelementptr inbounds nuw %struct.AVFrame, ptr %100, i32 0, i32 9
  %102 = load i64, ptr %101, align 8, !tbaa !85
  br label %107

103:                                              ; preds = %96
  %104 = load ptr, ptr %4, align 8, !tbaa !22
  %105 = getelementptr inbounds nuw %struct.AudioPhaseMeterContext, ptr %104, i32 0, i32 23
  %106 = load i64, ptr %105, align 8, !tbaa !90
  br label %107

107:                                              ; preds = %103, %99
  %108 = phi i64 [ %102, %99 ], [ %106, %103 ]
  %109 = load ptr, ptr %4, align 8, !tbaa !22
  %110 = getelementptr inbounds nuw %struct.AudioPhaseMeterContext, ptr %109, i32 0, i32 25
  %111 = getelementptr inbounds [2 x i64], ptr %110, i64 0, i64 1
  store i64 %108, ptr %111, align 8, !tbaa !56
  %112 = load ptr, ptr %4, align 8, !tbaa !22
  %113 = getelementptr inbounds nuw %struct.AudioPhaseMeterContext, ptr %112, i32 0, i32 25
  %114 = getelementptr inbounds [2 x i64], ptr %113, i64 0, i64 1
  %115 = load i64, ptr %114, align 8, !tbaa !56
  %116 = load ptr, ptr %4, align 8, !tbaa !22
  %117 = getelementptr inbounds nuw %struct.AudioPhaseMeterContext, ptr %116, i32 0, i32 25
  %118 = getelementptr inbounds [2 x i64], ptr %117, i64 0, i64 0
  %119 = load i64, ptr %118, align 8, !tbaa !56
  %120 = sub nsw i64 %115, %119
  store i64 %120, ptr %7, align 8, !tbaa !56
  %121 = load i64, ptr %7, align 8, !tbaa !56
  %122 = load ptr, ptr %4, align 8, !tbaa !22
  %123 = getelementptr inbounds nuw %struct.AudioPhaseMeterContext, ptr %122, i32 0, i32 22
  %124 = load i64, ptr %123, align 8, !tbaa !65
  %125 = icmp sge i64 %121, %124
  br i1 %125, label %126, label %160

126:                                              ; preds = %107
  %127 = load ptr, ptr %5, align 8, !tbaa !82
  %128 = icmp ne ptr %127, null
  br i1 %128, label %129, label %145

129:                                              ; preds = %126
  %130 = load ptr, ptr %5, align 8, !tbaa !82
  call void @llvm.memset.p0.i64(ptr align 1 %10, i8 0, i64 32, i1 false)
  %131 = getelementptr inbounds [32 x i8], ptr %10, i64 0, i64 0
  %132 = load ptr, ptr %4, align 8, !tbaa !22
  %133 = getelementptr inbounds nuw %struct.AudioPhaseMeterContext, ptr %132, i32 0, i32 25
  %134 = getelementptr inbounds [2 x i64], ptr %133, i64 0, i64 1
  %135 = load i64, ptr %134, align 8, !tbaa !56
  %136 = load ptr, ptr %4, align 8, !tbaa !22
  %137 = getelementptr inbounds nuw %struct.AudioPhaseMeterContext, ptr %136, i32 0, i32 21
  %138 = call ptr @av_ts_make_time_string(ptr noundef %131, i64 noundef %135, ptr noundef %137)
  call void @add_metadata(ptr noundef %130, ptr noundef @.str.45, ptr noundef %138)
  %139 = load ptr, ptr %5, align 8, !tbaa !82
  call void @llvm.memset.p0.i64(ptr align 1 %11, i8 0, i64 32, i1 false)
  %140 = getelementptr inbounds [32 x i8], ptr %11, i64 0, i64 0
  %141 = load i64, ptr %7, align 8, !tbaa !56
  %142 = load ptr, ptr %4, align 8, !tbaa !22
  %143 = getelementptr inbounds nuw %struct.AudioPhaseMeterContext, ptr %142, i32 0, i32 21
  %144 = call ptr @av_ts_make_time_string(ptr noundef %140, i64 noundef %141, ptr noundef %143)
  call void @add_metadata(ptr noundef %139, ptr noundef @.str.46, ptr noundef %144)
  br label %145

145:                                              ; preds = %129, %126
  %146 = load ptr, ptr %4, align 8, !tbaa !22
  call void @llvm.memset.p0.i64(ptr align 1 %12, i8 0, i64 32, i1 false)
  %147 = getelementptr inbounds [32 x i8], ptr %12, i64 0, i64 0
  %148 = load ptr, ptr %4, align 8, !tbaa !22
  %149 = getelementptr inbounds nuw %struct.AudioPhaseMeterContext, ptr %148, i32 0, i32 25
  %150 = getelementptr inbounds [2 x i64], ptr %149, i64 0, i64 1
  %151 = load i64, ptr %150, align 8, !tbaa !56
  %152 = load ptr, ptr %4, align 8, !tbaa !22
  %153 = getelementptr inbounds nuw %struct.AudioPhaseMeterContext, ptr %152, i32 0, i32 21
  %154 = call ptr @av_ts_make_time_string(ptr noundef %147, i64 noundef %151, ptr noundef %153)
  call void @llvm.memset.p0.i64(ptr align 1 %13, i8 0, i64 32, i1 false)
  %155 = getelementptr inbounds [32 x i8], ptr %13, i64 0, i64 0
  %156 = load i64, ptr %7, align 8, !tbaa !56
  %157 = load ptr, ptr %4, align 8, !tbaa !22
  %158 = getelementptr inbounds nuw %struct.AudioPhaseMeterContext, ptr %157, i32 0, i32 21
  %159 = call ptr @av_ts_make_time_string(ptr noundef %155, i64 noundef %156, ptr noundef %158)
  call void (ptr, i32, ptr, ...) @av_log(ptr noundef %146, i32 noundef 32, ptr noundef @.str.47, ptr noundef %154, ptr noundef %159)
  br label %160

160:                                              ; preds = %145, %107
  %161 = load ptr, ptr %4, align 8, !tbaa !22
  %162 = getelementptr inbounds nuw %struct.AudioPhaseMeterContext, ptr %161, i32 0, i32 14
  store i32 0, ptr %162, align 4, !tbaa !91
  br label %163

163:                                              ; preds = %160, %93, %88
  call void @llvm.lifetime.end.p0(i64 8, ptr %7) #12
  ret void
}